target datalayout = "e-m:e-p270:32:32-p271:32:32-p272:64:64-i64:64-i128:128-f80:128-n8:16:32:64-S128"
target triple = "x86_64-pc-linux-gnu"

%"class.tbb::detail::d1::task_scheduler_handle" = type { ptr }

; Function Attrs: mustprogress nounwind sspstrong uwtable
define linkonce_odr void @_ZN3tbb6detail2d114global_controlD2Ev(ptr noundef nonnull align 8 dereferenceable(20) %0) unnamed_addr #3 comdat align 2 personality ptr @__gxx_personality_v0 {
  %2 = alloca ptr, align 8
  store ptr %0, ptr %2, align 8, !tbaa !134
  %3 = load ptr, ptr %2, align 8
  invoke void @_ZN3tbb6detail2r17destroyERNS0_2d114global_controlE(ptr noundef nonnull align 8 dereferenceable(20) %3)
          to label %4 unwind label %5

4:                                                ; preds = %1
  ret void

5:                                                ; preds = %1
  %6 = landingpad { ptr, i32 }
          catch ptr null
  %7 = extractvalue { ptr, i32 } %6, 0
  call void @__clang_call_terminate(ptr %7) #18
  unreachable
}

; Function Attrs: mustprogress sspstrong uwtable
define void @_ZN3tbb6detail2r112release_implERNS0_2d121task_scheduler_handleE(ptr noundef nonnull align 8 dereferenceable(8) %0) #1 {
  %2 = alloca ptr, align 8
  store ptr %0, ptr %2, align 8, !tbaa !129
  %3 = load ptr, ptr %2, align 8, !tbaa !129
  %4 = getelementptr inbounds nuw %"class.tbb::detail::d1::task_scheduler_handle", ptr %3, i32 0, i32 0
  %5 = load ptr, ptr %4, align 8, !tbaa !131
  %6 = icmp ne ptr %5, null
  br i1 %6, label %7, label %16

7:                                                ; preds = %1
  %8 = load ptr, ptr %2, align 8, !tbaa !129
  %9 = getelementptr inbounds nuw %"class.tbb::detail::d1::task_scheduler_handle", ptr %8, i32 0, i32 0
  %10 = load ptr, ptr %9, align 8, !tbaa !131
  call void @_ZN3tbb6detail2d114global_controlD2Ev(ptr noundef nonnull align 8 dereferenceable(20) %10) #12
  %11 = load ptr, ptr %2, align 8, !tbaa !129
  %12 = getelementptr inbounds nuw %"class.tbb::detail::d1::task_scheduler_handle", ptr %11, i32 0, i32 0
  %13 = load ptr, ptr %12, align 8, !tbaa !131
  call void @_ZN3tbb6detail2r117deallocate_memoryEPv(ptr noundef %13)
  %14 = load ptr, ptr %2, align 8, !tbaa !129
  %15 = getelementptr inbounds nuw %"class.tbb::detail::d1::task_scheduler_handle", ptr %14, i32 0, i32 0
  store ptr null, ptr %15, align 8, !tbaa !131
  br label %16

16:                                               ; preds = %7, %1
  ret void
}