; Function Attrs: mustprogress sspstrong uwtable
define void @_ZN3tbb6detail2r112release_implERNS0_2d121task_scheduler_handleE(ptr noundef nonnull align 8 captures(none) dereferenceable(8) %0) local_unnamed_addr #1 personality ptr @__gxx_personality_v0 {
  %2 = load ptr, ptr %0, align 8, !tbaa !132
  %.not = icmp eq ptr %2, null
  br i1 %.not, label %8, label %3

3:                                                ; preds = %1
  invoke void @_ZN3tbb6detail2r17destroyERNS0_2d114global_controlE(ptr noundef nonnull align 8 dereferenceable(20) %2)
          to label %_ZN3tbb6detail2d114global_controlD2Ev.exit unwind label %4

4:                                                ; preds = %3
  %5 = landingpad { ptr, i32 }
          catch ptr null
  %6 = extractvalue { ptr, i32 } %5, 0
  tail call void @__clang_call_terminate(ptr %6) #15
  unreachable

_ZN3tbb6detail2d114global_controlD2Ev.exit:       ; preds = %3
  %7 = load ptr, ptr %0, align 8, !tbaa !132
  tail call void @_ZN3tbb6detail2r117deallocate_memoryEPv(ptr noundef %7)
  store ptr null, ptr %0, align 8, !tbaa !132
  br label %8

8:                                                ; preds = %_ZN3tbb6detail2d114global_controlD2Ev.exit, %1
  ret void
}